; Function Attrs: nounwind uwtable
define hidden ptr @SDL_CopyClipboardMimeTypes(ptr noundef readonly captures(none) %0, i64 noundef %1, i1 noundef zeroext %2) local_unnamed_addr #0 {
  %.not41 = icmp eq i64 %1, 0
  br i1 %.not41, label %._crit_edge, label %.lr.ph

._crit_edge:                                      ; preds = %.lr.ph, %3
  %.029.lcssa = phi i64 [ 8, %3 ], [ %8, %.lr.ph ]
  br i1 %2, label %10, label %12

.lr.ph:                                           ; preds = %3, %.lr.ph
  %.02935 = phi i64 [ %8, %.lr.ph ], [ 8, %3 ]
  %.03134 = phi i64 [ %9, %.lr.ph ], [ 0, %3 ]
  %4 = getelementptr inbounds nuw ptr, ptr %0, i64 %.03134
  %5 = load ptr, ptr %4, align 8
  %6 = tail call i64 @SDL_strlen_REAL(ptr noundef %5) #6
  %7 = add i64 %.02935, 9
  %8 = add i64 %7, %6
  %9 = add nuw i64 %.03134, 1
  %exitcond.not = icmp eq i64 %9, %1
  br i1 %exitcond.not, label %._crit_edge, label %.lr.ph, !llvm.loop !7

10:                                               ; preds = %._crit_edge
  %11 = tail call ptr @SDL_AllocateTemporaryMemory(i64 noundef %.029.lcssa) #6
  br label %14

12:                                               ; preds = %._crit_edge
  %13 = tail call noalias ptr @SDL_malloc_REAL(i64 noundef %.029.lcssa) #6
  br label %14

14:                                               ; preds = %12, %10
  %.030 = phi ptr [ %11, %10 ], [ %13, %12 ]
  %.not = icmp eq ptr %.030, null
  br i1 %.not, label %29, label %15

15:                                               ; preds = %14
  br i1 %.not41, label %._crit_edge40, label %.lr.ph39.preheader

.lr.ph39.preheader:                               ; preds = %15
  %16 = shl i64 %1, 3
  %17 = getelementptr i8, ptr %.030, i64 %16
  %18 = getelementptr i8, ptr %17, i64 8
  br label %.lr.ph39

._crit_edge40:                                    ; preds = %27, %15
  %19 = getelementptr inbounds nuw ptr, ptr %.030, i64 %1
  store ptr null, ptr %19, align 8
  br label %29

.lr.ph39:                                         ; preds = %.lr.ph39.preheader, %27
  %.02837 = phi i64 [ %28, %27 ], [ 0, %.lr.ph39.preheader ]
  %.136 = phi ptr [ %26, %27 ], [ %18, %.lr.ph39.preheader ]
  %20 = getelementptr inbounds nuw ptr, ptr %.030, i64 %.02837
  store ptr %.136, ptr %20, align 8
  %21 = getelementptr inbounds nuw ptr, ptr %0, i64 %.02837
  %22 = load ptr, ptr %21, align 8
  br label %23

23:                                               ; preds = %23, %.lr.ph39
  %.2 = phi ptr [ %.136, %.lr.ph39 ], [ %26, %23 ]
  %.027 = phi ptr [ %22, %.lr.ph39 ], [ %24, %23 ]
  %24 = getelementptr inbounds nuw i8, ptr %.027, i64 1
  %25 = load i8, ptr %.027, align 1
  %26 = getelementptr inbounds nuw i8, ptr %.2, i64 1
  store i8 %25, ptr %.2, align 1
  %.not33 = icmp eq i8 %25, 0
  br i1 %.not33, label %27, label %23, !llvm.loop !8

27:                                               ; preds = %23
  %28 = add nuw i64 %.02837, 1
  %exitcond44.not = icmp eq i64 %28, %1
  br i1 %exitcond44.not, label %._crit_edge40, label %.lr.ph39, !llvm.loop !9

29:                                               ; preds = %14, %._crit_edge40
  ret ptr %.030
}